target datalayout = "e-m:e-p270:32:32-p271:32:32-p272:64:64-i64:64-i128:128-f80:128-n8:16:32:64-S128"
target triple = "x86_64-pc-linux-gnu"

%struct.ForEachState = type { ptr, i32 }
%struct.List = type { i32, i32, i32, ptr, [0 x %union.ListCell] }
%union.ListCell = type { ptr }
%struct.TargetEntry = type { %struct.Expr, ptr, i16, ptr, i32, i32, i16, i8 }
%struct.Expr = type { i32 }

; Function Attrs: inlinehint nounwind uwtable
define internal ptr @lnext(ptr noundef %0, ptr noundef %1) #4 {
  %3 = alloca ptr, align 8
  %4 = alloca ptr, align 8
  %5 = alloca ptr, align 8
  store ptr %0, ptr %4, align 8
  store ptr %1, ptr %5, align 8
  %6 = load ptr, ptr %5, align 8
  %7 = getelementptr inbounds nuw %union.ListCell, ptr %6, i32 1
  store ptr %7, ptr %5, align 8
  %8 = load ptr, ptr %5, align 8
  %9 = load ptr, ptr %4, align 8
  %10 = getelementptr inbounds nuw %struct.List, ptr %9, i32 0, i32 3
  %11 = load ptr, ptr %10, align 8
  %12 = load ptr, ptr %4, align 8
  %13 = getelementptr inbounds nuw %struct.List, ptr %12, i32 0, i32 1
  %14 = load i32, ptr %13, align 4
  %15 = sext i32 %14 to i64
  %16 = getelementptr inbounds %union.ListCell, ptr %11, i64 %15
  %17 = icmp ult ptr %8, %16
  br i1 %17, label %18, label %20

18:                                               ; preds = %2
  %19 = load ptr, ptr %5, align 8
  store ptr %19, ptr %3, align 8
  br label %21

20:                                               ; preds = %2
  store ptr null, ptr %3, align 8
  br label %21

21:                                               ; preds = %20, %18
  %22 = load ptr, ptr %3, align 8
  ret ptr %22
}

; Function Attrs: inlinehint nounwind uwtable
define internal ptr @list_head(ptr noundef %0) #4 {
  %2 = alloca ptr, align 8
  store ptr %0, ptr %2, align 8
  %3 = load ptr, ptr %2, align 8
  %4 = icmp ne ptr %3, null
  br i1 %4, label %5, label %10

5:                                                ; preds = %1
  %6 = load ptr, ptr %2, align 8
  %7 = getelementptr inbounds nuw %struct.List, ptr %6, i32 0, i32 3
  %8 = load ptr, ptr %7, align 8
  %9 = getelementptr inbounds %union.ListCell, ptr %8, i64 0
  br label %11

10:                                               ; preds = %1
  br label %11

11:                                               ; preds = %10, %5
  %12 = phi ptr [ %9, %5 ], [ null, %10 ]
  ret ptr %12
}

; Function Attrs: nounwind uwtable
define dso_local zeroext i1 @tlist_same_collations(ptr noundef %0, ptr noundef %1, i1 noundef zeroext %2) #0 {
  %4 = alloca i1, align 1
  %5 = alloca ptr, align 8
  %6 = alloca ptr, align 8
  %7 = alloca i8, align 1
  %8 = alloca ptr, align 8
  %9 = alloca ptr, align 8
  %10 = alloca %struct.ForEachState, align 8
  %11 = alloca i32, align 4
  %12 = alloca ptr, align 8
  store ptr %0, ptr %5, align 8
  store ptr %1, ptr %6, align 8
  %13 = zext i1 %2 to i8
  store i8 %13, ptr %7, align 1
  call void @llvm.lifetime.start.p0(i64 8, ptr %8) #7
  call void @llvm.lifetime.start.p0(i64 8, ptr %9) #7
  %14 = load ptr, ptr %6, align 8
  %15 = call ptr @list_head(ptr noundef %14)
  store ptr %15, ptr %9, align 8
  call void @llvm.lifetime.start.p0(i64 16, ptr %10) #7
  %16 = getelementptr inbounds nuw %struct.ForEachState, ptr %10, i32 0, i32 0
  %17 = load ptr, ptr %5, align 8
  store ptr %17, ptr %16, align 8
  %18 = getelementptr inbounds nuw %struct.ForEachState, ptr %10, i32 0, i32 1
  store i32 0, ptr %18, align 8
  %19 = getelementptr i8, ptr %10, i64 12
  call void @llvm.memset.p0.i64(ptr align 4 %19, i8 0, i64 4, i1 false)
  br label %20

20:                                               ; preds = %79, %3
  %21 = getelementptr inbounds nuw %struct.ForEachState, ptr %10, i32 0, i32 0
  %22 = load ptr, ptr %21, align 8
  %23 = icmp ne ptr %22, null
  br i1 %23, label %24, label %41

24:                                               ; preds = %20
  %25 = getelementptr inbounds nuw %struct.ForEachState, ptr %10, i32 0, i32 1
  %26 = load i32, ptr %25, align 8
  %27 = getelementptr inbounds nuw %struct.ForEachState, ptr %10, i32 0, i32 0
  %28 = load ptr, ptr %27, align 8
  %29 = getelementptr inbounds nuw %struct.List, ptr %28, i32 0, i32 1
  %30 = load i32, ptr %29, align 4
  %31 = icmp slt i32 %26, %30
  br i1 %31, label %32, label %41

32:                                               ; preds = %24
  %33 = getelementptr inbounds nuw %struct.ForEachState, ptr %10, i32 0, i32 0
  %34 = load ptr, ptr %33, align 8
  %35 = getelementptr inbounds nuw %struct.List, ptr %34, i32 0, i32 3
  %36 = load ptr, ptr %35, align 8
  %37 = getelementptr inbounds nuw %struct.ForEachState, ptr %10, i32 0, i32 1
  %38 = load i32, ptr %37, align 8
  %39 = sext i32 %38 to i64
  %40 = getelementptr inbounds %union.ListCell, ptr %36, i64 %39
  store ptr %40, ptr %8, align 8
  br label %42

41:                                               ; preds = %24, %20
  store ptr null, ptr %8, align 8
  br label %42

42:                                               ; preds = %41, %32
  %43 = phi i32 [ 1, %32 ], [ 0, %41 ]
  %44 = icmp ne i32 %43, 0
  br i1 %44, label %46, label %45

45:                                               ; preds = %42
  store i32 2, ptr %11, align 4
  br label %83

46:                                               ; preds = %42
  call void @llvm.lifetime.start.p0(i64 8, ptr %12) #7
  %47 = load ptr, ptr %8, align 8
  %48 = load ptr, ptr %47, align 8
  store ptr %48, ptr %12, align 8
  %49 = load ptr, ptr %12, align 8
  %50 = getelementptr inbounds nuw %struct.TargetEntry, ptr %49, i32 0, i32 7
  %51 = load i8, ptr %50, align 2, !range !7, !noundef !8
  %52 = trunc i8 %51 to i1
  br i1 %52, label %53, label %58

53:                                               ; preds = %46
  %54 = load i8, ptr %7, align 1, !range !7, !noundef !8
  %55 = trunc i8 %54 to i1
  br i1 %55, label %57, label %56

56:                                               ; preds = %53
  store i1 false, ptr %4, align 1
  store i32 1, ptr %11, align 4
  br label %76

57:                                               ; preds = %53
  br label %75

58:                                               ; preds = %46
  %59 = load ptr, ptr %9, align 8
  %60 = icmp eq ptr %59, null
  br i1 %60, label %61, label %62

61:                                               ; preds = %58
  store i1 false, ptr %4, align 1
  store i32 1, ptr %11, align 4
  br label %76

62:                                               ; preds = %58
  %63 = load ptr, ptr %12, align 8
  %64 = getelementptr inbounds nuw %struct.TargetEntry, ptr %63, i32 0, i32 1
  %65 = load ptr, ptr %64, align 8
  %66 = call i32 @exprCollation(ptr noundef %65)
  %67 = load ptr, ptr %9, align 8
  %68 = load i32, ptr %67, align 8
  %69 = icmp ne i32 %66, %68
  br i1 %69, label %70, label %71

70:                                               ; preds = %62
  store i1 false, ptr %4, align 1
  store i32 1, ptr %11, align 4
  br label %76

71:                                               ; preds = %62
  %72 = load ptr, ptr %6, align 8
  %73 = load ptr, ptr %9, align 8
  %74 = call ptr @lnext(ptr noundef %72, ptr noundef %73)
  store ptr %74, ptr %9, align 8
  br label %75

75:                                               ; preds = %71, %57
  store i32 0, ptr %11, align 4
  br label %76

76:                                               ; preds = %75, %70, %61, %56
  call void @llvm.lifetime.end.p0(i64 8, ptr %12) #7
  %77 = load i32, ptr %11, align 4
  switch i32 %77, label %83 [
    i32 0, label %78
  ]

78:                                               ; preds = %76
  br label %79

79:                                               ; preds = %78
  %80 = getelementptr inbounds nuw %struct.ForEachState, ptr %10, i32 0, i32 1
  %81 = load i32, ptr %80, align 8
  %82 = add i32 %81, 1
  store i32 %82, ptr %80, align 8
  br label %20, !llvm.loop !13

83:                                               ; preds = %76, %45
  call void @llvm.lifetime.end.p0(i64 16, ptr %10) #7
  %84 = load i32, ptr %11, align 4
  switch i32 %84, label %90 [
    i32 2, label %85
  ]

85:                                               ; preds = %83
  %86 = load ptr, ptr %9, align 8
  %87 = icmp ne ptr %86, null
  br i1 %87, label %88, label %89

88:                                               ; preds = %85
  store i1 false, ptr %4, align 1
  store i32 1, ptr %11, align 4
  br label %90

89:                                               ; preds = %85
  store i1 true, ptr %4, align 1
  store i32 1, ptr %11, align 4
  br label %90

90:                                               ; preds = %89, %88, %83
  call void @llvm.lifetime.end.p0(i64 8, ptr %9) #7
  call void @llvm.lifetime.end.p0(i64 8, ptr %8) #7
  %91 = load i1, ptr %4, align 1
  ret i1 %91
}