; Function Attrs: nounwind uwtable
define dso_local zeroext i1 @tlist_same_collations(ptr noundef readonly captures(address_is_null) %0, ptr noundef readonly captures(address_is_null) %1, i1 noundef zeroext %2) local_unnamed_addr #0 {
  %.not.i = icmp eq ptr %1, null
  br i1 %.not.i, label %list_head.exit, label %4

4:                                                ; preds = %3
  %5 = getelementptr inbounds nuw i8, ptr %1, i64 16
  %6 = load ptr, ptr %5, align 8
  br label %list_head.exit

list_head.exit:                                   ; preds = %3, %4
  %7 = phi ptr [ %6, %4 ], [ null, %3 ]
  %.not = icmp eq ptr %0, null
  br i1 %.not, label %._crit_edge, label %.lr.ph

.lr.ph:                                           ; preds = %list_head.exit
  %8 = getelementptr inbounds nuw i8, ptr %0, i64 4
  %9 = getelementptr inbounds nuw i8, ptr %0, i64 16
  %10 = getelementptr i8, ptr %1, i64 4
  %11 = getelementptr i8, ptr %1, i64 16
  %12 = load i32, ptr %8, align 4
  %13 = icmp sgt i32 %12, 0
  br i1 %2, label %.lr.ph.split.us.split, label %.lr.ph.split.split

.lr.ph.split.us.split:                            ; preds = %.lr.ph
  br i1 %13, label %.lr.ph69, label %._crit_edge

.lr.ph69:                                         ; preds = %.lr.ph.split.us.split, %32
  %14 = phi i32 [ %33, %32 ], [ %12, %.lr.ph.split.us.split ]
  %indvars.iv75 = phi i64 [ %indvars.iv.next76, %32 ], [ 0, %.lr.ph.split.us.split ]
  %.02146.us68 = phi ptr [ %.22340.us, %32 ], [ %7, %.lr.ph.split.us.split ]
  %15 = load ptr, ptr %9, align 8
  %16 = getelementptr inbounds nuw %union.ListCell, ptr %15, i64 %indvars.iv75
  %17 = load ptr, ptr %16, align 8
  %18 = getelementptr inbounds nuw i8, ptr %17, i64 42
  %19 = load i8, ptr %18, align 2, !range !4, !noundef !5
  %20 = trunc nuw i8 %19 to i1
  br i1 %20, label %32, label %21

21:                                               ; preds = %.lr.ph69
  %22 = icmp eq ptr %.02146.us68, null
  br i1 %22, label %.thread42, label %23

23:                                               ; preds = %21
  %24 = getelementptr inbounds nuw i8, ptr %17, i64 8
  %25 = load ptr, ptr %24, align 8
  %26 = tail call i32 @exprCollation(ptr noundef %25) #10
  %27 = load i32, ptr %.02146.us68, align 8
  %.not27.us = icmp eq i32 %26, %27
  br i1 %.not27.us, label %.thread37.us, label %.thread42

.thread37.us:                                     ; preds = %23
  %.val.us = load i32, ptr %10, align 4
  %.val29.us = load ptr, ptr %11, align 8
  %28 = getelementptr inbounds nuw i8, ptr %.02146.us68, i64 8
  %29 = sext i32 %.val.us to i64
  %30 = getelementptr inbounds %union.ListCell, ptr %.val29.us, i64 %29
  %31 = icmp ult ptr %28, %30
  %..i.us = select i1 %31, ptr %28, ptr null
  %.pre = load i32, ptr %8, align 4
  br label %32

32:                                               ; preds = %.lr.ph69, %.thread37.us
  %33 = phi i32 [ %.pre, %.thread37.us ], [ %14, %.lr.ph69 ]
  %.22340.us = phi ptr [ %..i.us, %.thread37.us ], [ %.02146.us68, %.lr.ph69 ]
  %indvars.iv.next76 = add nuw nsw i64 %indvars.iv75, 1
  %34 = sext i32 %33 to i64
  %35 = icmp slt i64 %indvars.iv.next76, %34
  br i1 %35, label %.lr.ph69, label %._crit_edge

.lr.ph.split.split:                               ; preds = %.lr.ph
  br i1 %13, label %.lr.ph64, label %._crit_edge

.lr.ph64:                                         ; preds = %.lr.ph.split.split, %.thread37
  %indvars.iv = phi i64 [ %indvars.iv.next, %.thread37 ], [ 0, %.lr.ph.split.split ]
  %.0214663 = phi ptr [ %..i, %.thread37 ], [ %7, %.lr.ph.split.split ]
  %36 = load ptr, ptr %9, align 8
  %37 = getelementptr inbounds nuw %union.ListCell, ptr %36, i64 %indvars.iv
  %38 = load ptr, ptr %37, align 8
  %39 = getelementptr inbounds nuw i8, ptr %38, i64 42
  %40 = load i8, ptr %39, align 2, !range !4, !noundef !5
  %41 = trunc nuw i8 %40 to i1
  %42 = icmp eq ptr %.0214663, null
  %or.cond71 = select i1 %41, i1 true, i1 %42
  br i1 %or.cond71, label %.thread42, label %43

43:                                               ; preds = %.lr.ph64
  %44 = getelementptr inbounds nuw i8, ptr %38, i64 8
  %45 = load ptr, ptr %44, align 8
  %46 = tail call i32 @exprCollation(ptr noundef %45) #10
  %47 = load i32, ptr %.0214663, align 8
  %.not27 = icmp eq i32 %46, %47
  br i1 %.not27, label %.thread37, label %.thread42

.thread37:                                        ; preds = %43
  %.val = load i32, ptr %10, align 4
  %.val29 = load ptr, ptr %11, align 8
  %48 = getelementptr inbounds nuw i8, ptr %.0214663, i64 8
  %49 = sext i32 %.val to i64
  %50 = getelementptr inbounds %union.ListCell, ptr %.val29, i64 %49
  %51 = icmp ult ptr %48, %50
  %..i = select i1 %51, ptr %48, ptr null
  %indvars.iv.next = add nuw nsw i64 %indvars.iv, 1
  %52 = load i32, ptr %8, align 4
  %53 = sext i32 %52 to i64
  %54 = icmp slt i64 %indvars.iv.next, %53
  br i1 %54, label %.lr.ph64, label %._crit_edge

._crit_edge:                                      ; preds = %.thread37, %32, %.lr.ph.split.us.split, %.lr.ph.split.split, %list_head.exit
  %.021.lcssa = phi ptr [ %7, %list_head.exit ], [ %7, %.lr.ph.split.us.split ], [ %7, %.lr.ph.split.split ], [ %.22340.us, %32 ], [ %..i, %.thread37 ]
  %.not28 = icmp eq ptr %.021.lcssa, null
  br label %.thread42

.thread42:                                        ; preds = %43, %.lr.ph64, %21, %23, %._crit_edge
  %.3 = phi i1 [ %.not28, %._crit_edge ], [ false, %23 ], [ false, %21 ], [ false, %.lr.ph64 ], [ false, %43 ]
  ret i1 %.3
}